#include <math.h>
#include <stdio.h>
#include <stdlib.h>
#include <string.h>

int changdu(int i,int n,int *a,int *b)
{
    int j,max=1;
    for(j=i+1;j<n;j++)
    {
                      if(a[i]>=a[j])
                      {
                                    b[i]=changdu(j,n,a,b)+1;
                                    if(b[i]>max)
                                    max=b[i];
                                    }
                                    }
    b[i]=max;
    return max;
}
main()
{
      int a[25],b[25];
      int n;
      int max=0,i;
      scanf("%d",&n);
      for(i=0;i<n;i++)
      scanf("%d",&a[i]);
      for(i=0;i<n;i++)
      b[i]=changdu(i,n,a,b);
      for(i=0;i<n;i++)
      {
                      if(b[i]>max)
                      max=b[i];
                      }
      printf("%d",max);

      }

